target datalayout = "e-m:e-p270:32:32-p271:32:32-p272:64:64-i64:64-i128:128-f80:128-n8:16:32:64-S128"
target triple = "x86_64-pc-linux-gnu"

%struct._zend_executor_globals = type { %struct._zval_struct, %struct._zval_struct, [32 x ptr], ptr, ptr, %struct._zend_array, %struct._zend_array, ptr, i32, i8, %struct._zval_struct, i32, ptr, ptr, ptr, ptr, ptr, ptr, i64, ptr, ptr, i32, ptr, i32, i64, i32, i32, i32, i8, i8, %struct.zend_atomic_bool_s, %struct.zend_atomic_bool_s, ptr, i64, ptr, ptr, %struct._zend_array, %struct._zend_array, i32, i8, %struct._zval_struct, %struct._zval_struct, %struct._zend_stack, %struct._zend_stack, %struct._zend_stack, ptr, i32, i32, i64, ptr, ptr, ptr, %struct._zend_objects_store, %struct._zend_lazy_objects_store, ptr, ptr, ptr, [3 x %struct._zend_op], ptr, i8, i8, i64, i32, i32, ptr, [16 x %struct._HashTableIterator], ptr, %union._zend_function, %struct._zend_op, %struct._zend_array, i64, %struct.zend_get_gc_buffer, ptr, ptr, ptr, i64, i8, i32, ptr, ptr, i64, %struct._zend_call_stack, i64, i64, %struct._zend_strtod_state, [6 x ptr] }
%struct.zend_atomic_bool_s = type { i8 }
%struct._zval_struct = type { %union._zend_value, %union.anon, %union.anon.2 }
%union._zend_value = type { i64 }
%union.anon = type { i32 }
%union.anon.2 = type { i32 }
%struct._zend_stack = type { i32, i32, i32, ptr }
%struct._zend_objects_store = type { ptr, i32, i32, i32 }
%struct._zend_lazy_objects_store = type { %struct._zend_array }
%struct._HashTableIterator = type { ptr, i32, i32 }
%union._zend_function = type { %struct._zend_op_array }
%struct._zend_op_array = type { i8, [3 x i8], i32, ptr, ptr, ptr, i32, i32, ptr, ptr, ptr, ptr, i32, ptr, i32, i32, i32, ptr, ptr, ptr, ptr, ptr, i32, i32, ptr, ptr, ptr, i32, i32, i32, i32, ptr, ptr, [6 x ptr] }
%struct._zend_op = type { ptr, %union._znode_op, %union._znode_op, %union._znode_op, i32, i32, i8, i8, i8, i8 }
%union._znode_op = type { i32 }
%struct._zend_array = type { %struct._zend_refcounted_h, %union.anon.4, i32, %union.anon.6, i32, i32, i32, i32, i64, ptr }
%struct._zend_refcounted_h = type { i32, %union.anon.3 }
%union.anon.3 = type { i32 }
%union.anon.4 = type { i32 }
%union.anon.6 = type { ptr }
%struct.zend_get_gc_buffer = type { ptr, ptr, ptr }
%struct._zend_call_stack = type { ptr, i64 }
%struct._zend_strtod_state = type { [8 x ptr], ptr, ptr }
%struct._php_random_algo_with_state = type { ptr, ptr }
%struct._php_random_algo = type { i64, ptr, ptr, ptr, ptr }

@executor_globals = external global %struct._zend_executor_globals, align 8

; Function Attrs: nounwind uwtable
define dso_local zeroext i1 @php_binary_string_shuffle(ptr %0, ptr %1, ptr noundef %2, i64 noundef %3) #0 {
  %5 = alloca i1, align 1
  %6 = alloca %struct._php_random_algo_with_state, align 8
  %7 = alloca ptr, align 8
  %8 = alloca i64, align 8
  %9 = alloca ptr, align 8
  %10 = alloca ptr, align 8
  %11 = alloca i64, align 8
  %12 = alloca i64, align 8
  %13 = alloca i64, align 8
  %14 = alloca i8, align 1
  %15 = alloca i32, align 4
  %16 = getelementptr inbounds nuw { ptr, ptr }, ptr %6, i32 0, i32 0
  store ptr %0, ptr %16, align 8
  %17 = getelementptr inbounds nuw { ptr, ptr }, ptr %6, i32 0, i32 1
  store ptr %1, ptr %17, align 8
  store ptr %2, ptr %7, align 8, !tbaa !10
  store i64 %3, ptr %8, align 8, !tbaa !31
  call void @llvm.lifetime.start.p0(i64 8, ptr %9) #22
  %18 = getelementptr inbounds nuw %struct._php_random_algo_with_state, ptr %6, i32 0, i32 0
  %19 = load ptr, ptr %18, align 8, !tbaa !154
  store ptr %19, ptr %9, align 8, !tbaa !157
  call void @llvm.lifetime.start.p0(i64 8, ptr %10) #22
  %20 = getelementptr inbounds nuw %struct._php_random_algo_with_state, ptr %6, i32 0, i32 1
  %21 = load ptr, ptr %20, align 8, !tbaa !158
  store ptr %21, ptr %10, align 8, !tbaa !77
  call void @llvm.lifetime.start.p0(i64 8, ptr %11) #22
  call void @llvm.lifetime.start.p0(i64 8, ptr %12) #22
  call void @llvm.lifetime.start.p0(i64 8, ptr %13) #22
  call void @llvm.lifetime.start.p0(i64 1, ptr %14) #22
  %22 = load i64, ptr %8, align 8, !tbaa !31
  store i64 %22, ptr %11, align 8, !tbaa !31
  %23 = load i64, ptr %11, align 8, !tbaa !31
  %24 = icmp sle i64 %23, 1
  br i1 %24, label %25, label %26

25:                                               ; preds = %4
  store i1 true, ptr %5, align 1
  store i32 1, ptr %15, align 4
  br label %64

26:                                               ; preds = %4
  %27 = load i64, ptr %11, align 8, !tbaa !31
  store i64 %27, ptr %13, align 8, !tbaa !31
  br label %28

28:                                               ; preds = %62, %26
  %29 = load i64, ptr %13, align 8, !tbaa !31
  %30 = add nsw i64 %29, -1
  store i64 %30, ptr %13, align 8, !tbaa !31
  %31 = icmp ne i64 %30, 0
  br i1 %31, label %32, label %63

32:                                               ; preds = %28
  %33 = load ptr, ptr %9, align 8, !tbaa !157
  %34 = getelementptr inbounds nuw %struct._php_random_algo, ptr %33, i32 0, i32 2
  %35 = load ptr, ptr %34, align 8, !tbaa !159
  %36 = load ptr, ptr %10, align 8, !tbaa !77
  %37 = load i64, ptr %13, align 8, !tbaa !31
  %38 = call i64 %35(ptr noundef %36, i64 noundef 0, i64 noundef %37)
  store i64 %38, ptr %12, align 8, !tbaa !31
  %39 = load ptr, ptr getelementptr inbounds nuw (%struct._zend_executor_globals, ptr @executor_globals, i32 0, i32 54), align 8, !tbaa !41
  %40 = icmp ne ptr %39, null
  br i1 %40, label %41, label %42

41:                                               ; preds = %32
  store i1 false, ptr %5, align 1
  store i32 1, ptr %15, align 4
  br label %64

42:                                               ; preds = %32
  %43 = load i64, ptr %12, align 8, !tbaa !31
  %44 = load i64, ptr %13, align 8, !tbaa !31
  %45 = icmp ne i64 %43, %44
  br i1 %45, label %46, label %62

46:                                               ; preds = %42
  %47 = load ptr, ptr %7, align 8, !tbaa !10
  %48 = load i64, ptr %13, align 8, !tbaa !31
  %49 = getelementptr inbounds i8, ptr %47, i64 %48
  %50 = load i8, ptr %49, align 1, !tbaa !12
  store i8 %50, ptr %14, align 1, !tbaa !12
  %51 = load ptr, ptr %7, align 8, !tbaa !10
  %52 = load i64, ptr %12, align 8, !tbaa !31
  %53 = getelementptr inbounds i8, ptr %51, i64 %52
  %54 = load i8, ptr %53, align 1, !tbaa !12
  %55 = load ptr, ptr %7, align 8, !tbaa !10
  %56 = load i64, ptr %13, align 8, !tbaa !31
  %57 = getelementptr inbounds i8, ptr %55, i64 %56
  store i8 %54, ptr %57, align 1, !tbaa !12
  %58 = load i8, ptr %14, align 1, !tbaa !12
  %59 = load ptr, ptr %7, align 8, !tbaa !10
  %60 = load i64, ptr %12, align 8, !tbaa !31
  %61 = getelementptr inbounds i8, ptr %59, i64 %60
  store i8 %58, ptr %61, align 1, !tbaa !12
  br label %62

62:                                               ; preds = %46, %42
  br label %28

63:                                               ; preds = %28
  store i1 true, ptr %5, align 1
  store i32 1, ptr %15, align 4
  br label %64

64:                                               ; preds = %63, %41, %25
  call void @llvm.lifetime.end.p0(i64 1, ptr %14) #22
  call void @llvm.lifetime.end.p0(i64 8, ptr %13) #22
  call void @llvm.lifetime.end.p0(i64 8, ptr %12) #22
  call void @llvm.lifetime.end.p0(i64 8, ptr %11) #22
  call void @llvm.lifetime.end.p0(i64 8, ptr %10) #22
  call void @llvm.lifetime.end.p0(i64 8, ptr %9) #22
  %65 = load i1, ptr %5, align 1
  ret i1 %65
}