; Function Attrs: nounwind uwtable
define dso_local noundef zeroext i1 @php_binary_string_shuffle(ptr readonly captures(none) %0, ptr %1, ptr noundef captures(none) %2, i64 noundef %3) local_unnamed_addr #0 {
  %5 = icmp slt i64 %3, 2
  br i1 %5, label %.loopexit, label %.lr.ph.preheader

.lr.ph.preheader:                                 ; preds = %4
  %6 = getelementptr inbounds nuw i8, ptr %0, i64 16
  %7 = add nsw i64 %3, -1
  br label %.lr.ph

.lr.ph:                                           ; preds = %.lr.ph.preheader, %18
  %8 = phi i64 [ %19, %18 ], [ %7, %.lr.ph.preheader ]
  %9 = load ptr, ptr %6, align 8, !tbaa !125
  %10 = tail call i64 %9(ptr noundef %1, i64 noundef 0, i64 noundef %8) #28
  %11 = load ptr, ptr getelementptr inbounds nuw (i8, ptr @executor_globals, i64 960), align 8, !tbaa !35
  %.not22 = icmp eq ptr %11, null
  br i1 %.not22, label %12, label %.loopexit

12:                                               ; preds = %.lr.ph
  %.not23 = icmp eq i64 %10, %8
  br i1 %.not23, label %18, label %13

13:                                               ; preds = %12
  %14 = getelementptr inbounds nuw i8, ptr %2, i64 %8
  %15 = load i8, ptr %14, align 1, !tbaa !10
  %16 = getelementptr inbounds i8, ptr %2, i64 %10
  %17 = load i8, ptr %16, align 1, !tbaa !10
  store i8 %17, ptr %14, align 1, !tbaa !10
  store i8 %15, ptr %16, align 1, !tbaa !10
  br label %18

18:                                               ; preds = %13, %12
  %19 = add nsw i64 %8, -1
  %.not = icmp eq i64 %19, 0
  br i1 %.not, label %.loopexit, label %.lr.ph

.loopexit:                                        ; preds = %.lr.ph, %18, %4
  %.0 = phi i1 [ true, %4 ], [ %.not22, %18 ], [ %.not22, %.lr.ph ]
  ret i1 %.0
}